Certificate:
    Data:
        Version: 3 (0x2)
        Serial Number: 1 (0x1)
        Signature Algorithm: sha256WithRSAEncryption
        Issuer: CN=Janky Root CA, OU=Dev, O=Janky Co, L=San Francisco, ST=California, C=US
        Validity
            Not Before: Jun 21 19:32:43 2015 GMT
            Not After : Jun 17 19:32:43 2031 GMT
        Subject: C=US, ST=California, L=San Francisco, O=Janky Co, OU=Dev, CN=Janky Intermediate CA
        Subject Public Key Info:
            Public Key Algorithm: rsaEncryption
            RSA Public Key: (2048 bit)
                Modulus (2048 bit):
                    00:e9:9c:cf:a8:0d:67:e3:38:c8:22:31:59:01:1f:
                    32:2e:43:56:d7:da:3f:64:23:fe:8c:8d:fb:24:b2:
                    42:ec:4a:ca:b9:32:fe:62:72:15:14:32:d4:a7:3f:
                    a7:34:ec:f0:50:6d:02:bf:8e:2f:e1:0d:0f:85:50:
                    f8:c2:6a:f4:14:d4:f4:34:b6:d7:9b:5a:d6:d3:fa:
                    b8:6c:d9:56:db:75:d6:3c:03:5c:a1:8b:8b:ab:a5:
                    31:7f:48:d3:78:b0:b4:0b:d6:bd:57:58:fe:60:85:
                    b1:2c:15:77:dc:74:a2:48:6c:64:49:b9:11:32:4d:
                    fe:b9:7f:67:dd:03:65:a2:9b:6a:0e:14:2c:dc:6b:
                    61:b7:84:e0:c8:32:30:92:82:c5:f6:9c:1a:18:70:
                    e5:0b:69:06:3b:e6:84:f3:cb:c5:89:cc:a0:8e:fe:
                    ba:05:04:6c:47:35:b9:06:84:15:fc:2a:6a:54:78:
                    24:5a:43:e1:53:58:68:74:36:97:d9:5e:79:85:43:
                    e9:e2:d8:41:cd:76:81:6c:43:7c:5b:aa:c1:4a:14:
                    ab:d1:86:e7:88:bc:97:90:64:8a:9b:01:2b:85:15:
                    50:ba:a4:e1:0e:82:78:89:6f:f6:21:ee:84:68:1f:
                    66:30:23:11:54:57:18:e0:a3:c4:90:ab:4e:c1:22:
                    01:b5
                Exponent: 65537 (0x10001)
        X509v3 extensions:
            X509v3 Basic Constraints: critical
                CA:TRUE, pathlen:0
            X509v3 Subject Key Identifier: 
                93:81:E7:DC:59:0B:A9:7B:D0:CB:01:93:66:93:21:AF:1C:4E:75:DF
            X509v3 Authority Key Identifier: 
                keyid:46:F9:5B:6E:E1:A7:B8:65:4D:E6:16:0E:4B:4C:20:2E:76:B4:37:39
                DirName:/CN=Janky Root CA/OU=Dev/O=Janky Co/L=San Francisco/ST=California/C=US
                serial:D0:AC:01:59:1C:07:B9:AE

            X509v3 Key Usage: critical
                Digital Signature, Certificate Sign, CRL Sign
    Signature Algorithm: sha256WithRSAEncryption
        c5:72:a7:8e:55:a8:b9:d9:f1:56:9d:d0:30:8e:55:6d:ec:36:
        02:bb:8e:93:c1:63:3b:49:27:fd:6f:05:b1:44:b7:9a:f5:ff:
        2d:22:d0:f4:f6:3f:d8:35:44:89:53:e4:63:63:a6:fb:39:c5:
        f8:9e:7c:da:09:01:93:0c:fd:aa:bd:06:26:8e:05:53:22:67:
        0b:cb:b6:f0:db:43:d9:e9:ad:17:96:f4:2f:92:4a:e1:54:ed:
        44:35:6d:35:78:78:d6:7f:04:35:46:fe:14:19:2f:91:18:ab:
        73:a3:f4:19:97:61:9b:58:44:b3:3f:80:91:c6:8d:8f:83:02:
        0f:25:9d:71:bc:6b:1f:71:1a:27:c3:2e:63:ed:31:9e:28:59:
        12:82:bd:3e:79:aa:3f:32:06:2d:52:bf:23:40:ee:f9:5d:2a:
        60:fb:1d:35:55:1f:34:3b:b9:a7:11:cf:b3:5f:06:cc:b5:1d:
        3a:ea:32:66:a2:56:6b:95:42:e4:c7:da:a0:03:81:79:b2:9d:
        5f:e4:61:2d:61:ec:ae:fd:fb:8e:96:a2:73:ad:91:10:1c:a5:
        c9:62:17:47:25:5e:2d:5c:1e:0a:9d:35:1d:ae:6f:3b:6c:26:
        e6:5e:bc:52:d6:e9:d5:60:b6:d7:bb:bc:74:69:e5:13:a3:6c:
        1e:c5:09:32
-----BEGIN CERTIFICATE-----
MIIEWDCCA0CgAwIBAgIBATANBgkqhkiG9w0BAQsFADBzMRYwFAYDVQQDDA1KYW5r
eSBSb290IENBMQwwCgYDVQQLDANEZXYxETAPBgNVBAoMCEphbmt5IENvMRYwFAYD
VQQHDA1TYW4gRnJhbmNpc2NvMRMwEQYDVQQIDApDYWxpZm9ybmlhMQswCQYDVQQG
EwJVUzAeFw0xNTA2MjExOTMyNDNaFw0zMTA2MTcxOTMyNDNaMHsxCzAJBgNVBAYT
AlVTMRMwEQYDVQQIDApDYWxpZm9ybmlhMRYwFAYDVQQHDA1TYW4gRnJhbmNpc2Nv
MREwDwYDVQQKDAhKYW5reSBDbzEMMAoGA1UECwwDRGV2MR4wHAYDVQQDDBVKYW5r
eSBJbnRlcm1lZGlhdGUgQ0EwggEiMA0GCSqGSIb3DQEBAQUAA4IBDwAwggEKAoIB
AQDpnM+oDWfjOMgiMVkBHzIuQ1bX2j9kI/6MjfskskLsSsq5Mv5ichUUMtSnP6c0
7PBQbQK/ji/hDQ+FUPjCavQU1PQ0ttebWtbT+rhs2VbbddY8A1yhi4urpTF/SNN4
sLQL1r1XWP5ghbEsFXfcdKJIbGRJuREyTf65f2fdA2Wim2oOFCzca2G3hODIMjCS
gsX2nBoYcOULaQY75oTzy8WJzKCO/roFBGxHNbkGhBX8KmpUeCRaQ+FTWGh0NpfZ
XnmFQ+ni2EHNdoFsQ3xbqsFKFKvRhueIvJeQZIqbASuFFVC6pOEOgniJb/Yh7oRo
H2YwIxFUVxjgo8SQq07BIgG1AgMBAAGjge4wgeswEgYDVR0TAQH/BAgwBgEB/wIB
ADAdBgNVHQ4EFgQUk4Hn3FkLqXvQywGTZpMhrxxOdd8wgaUGA1UdIwSBnTCBmoAU
RvlbbuGnuGVN5hYOS0wgLna0Nzmhd6R1MHMxFjAUBgNVBAMMDUphbmt5IFJvb3Qg
Q0ExDDAKBgNVBAsMA0RldjERMA8GA1UECgwISmFua3kgQ28xFjAUBgNVBAcMDVNh
biBGcmFuY2lzY28xEzARBgNVBAgMCkNhbGlmb3JuaWExCzAJBgNVBAYTAlVTggkA
0KwBWRwHua4wDgYDVR0PAQH/BAQDAgGGMA0GCSqGSIb3DQEBCwUAA4IBAQDFcqeO
Vai52fFWndAwjlVt7DYCu46TwWM7SSf9bwWxRLea9f8tItD09j/YNUSJU+RjY6b7
OcX4nnzaCQGTDP2qvQYmjgVTImcLy7bw20PZ6a0XlvQvkkrhVO1ENW01eHjWfwQ1
Rv4UGS+RGKtzo/QZl2GbWESzP4CRxo2PgwIPJZ1xvGsfcRonwy5j7TGeKFkSgr0+
eao/MgYtUr8jQO75XSpg+x01VR80O7mnEc+zXwbMtR066jJmolZrlULkx9qgA4F5
sp1f5GEtYeyu/fuOlqJzrZEQHKXJYhdHJV4tXB4KnTUdrm87bCbmXrxS1unVYLbX
u7x0aeUTo2wexQky
-----END CERTIFICATE-----
