Certificate:
    Data:
        Version: 3 (0x2)
        Serial Number: 14 (0xe)
    Signature Algorithm: sha256WithRSAEncryption
        Issuer: C=US, ST=California, L=San Francisco, O=Janky Co, OU=Dev, CN=Janky Intermediate CA
        Validity
            Not Before: Aug 19 03:24:21 2016 GMT
            Not After : Aug 15 03:24:21 2032 GMT
        Subject: C=US, ST=California, L=San Francisco, O=Janky Co, OU=Dev, CN=login.okta.io
        Subject Public Key Info:
            Public Key Algorithm: rsaEncryption
                Public-Key: (2048 bit)
                Modulus:
                    00:9d:c5:f9:7d:c2:84:7d:5b:59:dd:b2:a6:ad:7a:
                    82:03:3b:75:98:aa:bc:6c:4d:8a:45:01:1d:55:05:
                    0d:3b:31:3f:97:f9:45:17:67:dc:75:2d:11:ba:f3:
                    50:f5:2e:0e:f3:38:d9:ce:e6:33:69:f1:67:2d:9f:
                    34:41:d6:a9:2c:f6:15:8f:f4:01:83:d4:6d:51:2b:
                    7a:98:84:f6:ee:a6:75:22:cf:0f:0f:7c:52:53:73:
                    2f:11:e9:fc:94:51:a1:72:f9:e7:56:01:27:b9:1a:
                    90:6c:03:16:e9:a2:f9:d8:9b:03:35:e1:f9:ab:f8:
                    54:85:b4:c5:9f:b7:6d:4e:49:8f:43:5b:f0:27:0c:
                    78:68:d9:b4:79:1d:97:d5:52:fb:da:4f:d2:a9:ba:
                    e3:c6:5f:61:11:f7:91:b8:11:1d:fc:9b:74:e2:d0:
                    1c:d0:13:4d:d3:9e:2c:51:a4:fd:bd:db:c8:79:ea:
                    6b:b3:1a:68:8b:1f:90:cf:bd:60:31:d4:42:91:60:
                    7a:e1:aa:1f:5d:1d:cb:1c:c5:96:7e:90:c2:c3:5e:
                    c6:b1:f6:5b:ac:38:d7:30:73:aa:15:e0:7d:45:81:
                    6b:bc:7b:a2:da:8d:24:60:cd:c3:7b:04:87:e4:96:
                    04:5d:05:03:c7:14:f2:52:87:38:4b:8a:83:de:2e:
                    32:fd
                Exponent: 65537 (0x10001)
        X509v3 extensions:
            X509v3 Basic Constraints: critical
                CA:FALSE
            X509v3 Subject Key Identifier: 
                7F:D1:79:3D:1F:7C:D1:A3:58:79:3B:1F:DE:4C:19:D0:19:61:52:FB
            X509v3 Authority Key Identifier: 
                keyid:93:81:E7:DC:59:0B:A9:7B:D0:CB:01:93:66:93:21:AF:1C:4E:75:DF
                DirName:/CN=Janky Root CA/OU=Dev/O=Janky Co/L=San Francisco/ST=California/C=US
                serial:01

            X509v3 Key Usage: critical
                Digital Signature, Non Repudiation, Key Encipherment, Data Encipherment
            X509v3 Extended Key Usage: critical
                TLS Web Server Authentication
            X509v3 Subject Alternative Name: 
                DNS:login.okta.io, DNS:login.okta.io, DNS:example.okta.io, DNS:accounts.okta.io, DNS:org.okta.io, DNS:test.okta.io
    Signature Algorithm: sha256WithRSAEncryption
         73:76:63:b6:2c:17:39:f8:c2:4e:59:ef:ac:1e:bf:9b:dd:1f:
         c8:86:f5:f7:3e:50:fc:64:ab:ec:6c:a8:91:16:00:28:d6:40:
         01:ba:4c:0b:f1:8f:f7:0c:05:5d:8b:7d:69:b2:78:78:c3:94:
         78:30:8e:d3:6a:a1:99:ce:a4:69:3f:3f:82:1d:cf:75:42:21:
         b1:ca:40:5c:20:1a:ba:85:97:fd:1c:1c:cb:5d:d9:51:1e:f3:
         8f:fd:24:70:e6:18:8b:72:4b:7e:6b:54:1e:1f:32:44:41:4f:
         30:2a:f8:6e:d2:e3:6f:4f:43:c8:b2:99:dc:7f:62:1f:69:6d:
         df:f4:e8:0c:c3:02:a9:6f:03:4d:18:fa:08:00:e9:ef:44:3d:
         4a:7c:8e:5a:7b:d8:68:4a:5b:78:13:d6:70:e7:e6:e3:43:31:
         53:22:e0:92:11:b1:06:23:84:60:16:45:fd:66:61:8d:bb:bf:
         e6:05:6e:b2:fd:01:18:d7:41:f4:87:77:7d:30:e9:ae:37:24:
         9e:21:49:d0:87:28:da:6f:91:fa:75:ca:66:46:a4:48:70:26:
         76:ab:cd:0e:34:40:82:da:52:14:54:45:15:37:51:a7:5b:40:
         ad:75:69:67:4f:3a:f0:2d:8a:d7:50:2b:50:91:43:ac:96:cb:
         cd:db:99:c8
-----BEGIN CERTIFICATE-----
MIIEyzCCA7OgAwIBAgIBDjANBgkqhkiG9w0BAQsFADB7MQswCQYDVQQGEwJVUzET
MBEGA1UECAwKQ2FsaWZvcm5pYTEWMBQGA1UEBwwNU2FuIEZyYW5jaXNjbzERMA8G
A1UECgwISmFua3kgQ28xDDAKBgNVBAsMA0RldjEeMBwGA1UEAwwVSmFua3kgSW50
ZXJtZWRpYXRlIENBMB4XDTE2MDgxOTAzMjQyMVoXDTMyMDgxNTAzMjQyMVowczEL
MAkGA1UEBhMCVVMxEzARBgNVBAgMCkNhbGlmb3JuaWExFjAUBgNVBAcMDVNhbiBG
cmFuY2lzY28xETAPBgNVBAoMCEphbmt5IENvMQwwCgYDVQQLDANEZXYxFjAUBgNV
BAMMDWxvZ2luLm9rdGEuaW8wggEiMA0GCSqGSIb3DQEBAQUAA4IBDwAwggEKAoIB
AQCdxfl9woR9W1ndsqateoIDO3WYqrxsTYpFAR1VBQ07MT+X+UUXZ9x1LRG681D1
Lg7zONnO5jNp8WctnzRB1qks9hWP9AGD1G1RK3qYhPbupnUizw8PfFJTcy8R6fyU
UaFy+edWASe5GpBsAxbpovnYmwM14fmr+FSFtMWft21OSY9DW/AnDHho2bR5HZfV
UvvaT9KpuuPGX2ER95G4ER38m3Ti0BzQE03TnixRpP2928h56muzGmiLH5DPvWAx
1EKRYHrhqh9dHcscxZZ+kMLDXsax9lusONcwc6oV4H1FgWu8e6LajSRgzcN7BIfk
lgRdBQPHFPJShzhLioPeLjL9AgMBAAGjggFgMIIBXDAMBgNVHRMBAf8EAjAAMB0G
A1UdDgQWBBR/0Xk9H3zRo1h5Ox/eTBnQGWFS+zCBnQYDVR0jBIGVMIGSgBSTgefc
WQupe9DLAZNmkyGvHE5136F3pHUwczEWMBQGA1UEAwwNSmFua3kgUm9vdCBDQTEM
MAoGA1UECwwDRGV2MREwDwYDVQQKDAhKYW5reSBDbzEWMBQGA1UEBwwNU2FuIEZy
YW5jaXNjbzETMBEGA1UECAwKQ2FsaWZvcm5pYTELMAkGA1UEBhMCVVOCAQEwDgYD
VR0PAQH/BAQDAgTwMBYGA1UdJQEB/wQMMAoGCCsGAQUFBwMBMGUGA1UdEQReMFyC
DWxvZ2luLm9rdGEuaW+CDWxvZ2luLm9rdGEuaW+CD2V4YW1wbGUub2t0YS5pb4IQ
YWNjb3VudHMub2t0YS5pb4ILb3JnLm9rdGEuaW+CDHRlc3Qub2t0YS5pbzANBgkq
hkiG9w0BAQsFAAOCAQEAc3ZjtiwXOfjCTlnvrB6/m90fyIb19z5Q/GSr7GyokRYA
KNZAAbpMC/GP9wwFXYt9abJ4eMOUeDCO02qhmc6kaT8/gh3PdUIhscpAXCAauoWX
/Rwcy13ZUR7zj/0kcOYYi3JLfmtUHh8yREFPMCr4btLjb09DyLKZ3H9iH2lt3/To
DMMCqW8DTRj6CADp70Q9SnyOWnvYaEpbeBPWcOfm40MxUyLgkhGxBiOEYBZF/WZh
jbu/5gVusv0BGNdB9Id3fTDprjckniFJ0Ico2m+R+nXKZkakSHAmdqvNDjRAgtpS
FFRFFTdRp1tArXVpZ0868C2K11ArUJFDrJbLzduZyA==
-----END CERTIFICATE-----
